; Function Attrs: mustprogress uwtable
define noundef i32 @_Z16tMPI_Comm_createP10tmpi_comm_P11tmpi_group_PS0_(ptr noundef %0, ptr noundef %1, ptr noundef writeonly captures(none) %2) local_unnamed_addr #1 {
  %4 = tail call noundef ptr @_Z23tMPI_Thread_getspecific17tMPI_Thread_key_t(ptr noundef nonnull byval(%struct.tMPI_Thread_key_t) align 8 @id_key)
  %.not.i = icmp eq ptr %0, null
  br i1 %.not.i, label %_Z19tMPI_Comm_seek_rankP10tmpi_comm_P11tmpi_thread.exit, label %.preheader.i

.preheader.i:                                     ; preds = %3
  %5 = load i32, ptr %0, align 8, !tbaa !3
  %6 = icmp sgt i32 %5, 0
  br i1 %6, label %.lr.ph.i, label %_Z19tMPI_Comm_seek_rankP10tmpi_comm_P11tmpi_thread.exit

.lr.ph.i:                                         ; preds = %.preheader.i
  %7 = getelementptr inbounds nuw i8, ptr %0, i64 8
  %8 = load ptr, ptr %7, align 8, !tbaa !29
  %wide.trip.count.i = zext nneg i32 %5 to i64
  br label %9

9:                                                ; preds = %13, %.lr.ph.i
  %indvars.iv.i = phi i64 [ 0, %.lr.ph.i ], [ %indvars.iv.next.i, %13 ]
  %10 = getelementptr inbounds nuw ptr, ptr %8, i64 %indvars.iv.i
  %11 = load ptr, ptr %10, align 8, !tbaa !30
  %12 = icmp eq ptr %11, %4
  br i1 %12, label %.loopexit.loopexit.split.loop.exit14.i, label %13

13:                                               ; preds = %9
  %indvars.iv.next.i = add nuw nsw i64 %indvars.iv.i, 1
  %exitcond.not.i = icmp eq i64 %indvars.iv.next.i, %wide.trip.count.i
  br i1 %exitcond.not.i, label %_Z19tMPI_Comm_seek_rankP10tmpi_comm_P11tmpi_thread.exit, label %9, !llvm.loop !60

.loopexit.loopexit.split.loop.exit14.i:           ; preds = %9
  %14 = trunc nuw nsw i64 %indvars.iv.i to i32
  br label %_Z19tMPI_Comm_seek_rankP10tmpi_comm_P11tmpi_thread.exit

_Z19tMPI_Comm_seek_rankP10tmpi_comm_P11tmpi_thread.exit: ; preds = %13, %3, %.preheader.i, %.loopexit.loopexit.split.loop.exit14.i
  %.08.i = phi i32 [ -1, %3 ], [ -1, %.preheader.i ], [ %14, %.loopexit.loopexit.split.loop.exit14.i ], [ -1, %13 ]
  %15 = tail call noundef i32 @_Z13tMPI_In_groupP11tmpi_group_(ptr noundef %1)
  %.not = icmp eq i32 %15, 0
  %. = select i1 %.not, i32 -1, i32 1
  %16 = tail call noundef i32 @_Z15tMPI_Comm_splitP10tmpi_comm_iiPS0_(ptr noundef %0, i32 noundef %., i32 noundef %.08.i, ptr noundef %2)
  ret i32 %16
}